	.file	"memory_unmap_chunk.c"
	.text
.Ltext0:
	.section	.rodata
.LC0:
	.string	"error"
	.text
	.globl	main
	.type	main, @function
main:
.LFB0:
	.file 1 "memory_unmap_chunk.c"
	.loc 1 23 0
	.cfi_startproc
	pushl	%ebp
.LCFI0:
	.cfi_def_cfa_offset 8
	.cfi_offset 5, -8
	movl	%esp, %ebp
.LCFI1:
	.cfi_def_cfa_register 5
	pushl	%edi
	pushl	%ebx
	andl	$-16, %esp
	subl	$32, %esp
	.loc 1 24 0
	movl	$0, 28(%esp)
	.loc 1 26 0
	movl	$64, (%esp)
	.cfi_offset 3, -16
	.cfi_offset 7, -12
	call	malloc
	movl	%eax, 28(%esp)
	.loc 1 27 0
	cmpl	$0, 28(%esp)
	jne	.L2
	.loc 1 29 0
	movl	$.LC0, (%esp)
	call	puts
	.loc 1 30 0
	movl	$-1, %eax
	jmp	.L3
.L2:
	.loc 1 33 0
	movl	28(%esp), %eax
	movl	%eax, %edx
	movl	$64, %ebx
	movl	$0, %eax
	movl	%edx, %ecx
	andl	$1, %ecx
	testl	%ecx, %ecx
	je	.L4
	movb	%al, (%edx)
	addl	$1, %edx
	subl	$1, %ebx
.L4:
	movl	%edx, %ecx
	andl	$2, %ecx
	testl	%ecx, %ecx
	je	.L5
	movw	%ax, (%edx)
	addl	$2, %edx
	subl	$2, %ebx
.L5:
	movl	%ebx, %ecx
	shrl	$2, %ecx
	movl	%edx, %edi
	rep stosl
	movl	%edi, %edx
	movl	%ebx, %ecx
	andl	$2, %ecx
	testl	%ecx, %ecx
	je	.L6
	movw	%ax, (%edx)
	addl	$2, %edx
.L6:
	movl	%ebx, %ecx
	andl	$1, %ecx
	testl	%ecx, %ecx
	je	.L7
	movb	%al, (%edx)
	addl	$1, %edx
.L7:
	.loc 1 35 0
	movl	12(%ebp), %eax
	addl	$4, %eax
	movl	(%eax), %eax
	testl	%eax, %eax
	je	.L8
	.loc 1 36 0
	movl	12(%ebp), %eax
	addl	$4, %eax
	movl	(%eax), %eax
	movl	%eax, (%esp)
	call	free
.L8:
	.loc 1 38 0
	movl	28(%esp), %eax
	addl	$4, %eax
	movl	%eax, (%esp)
	call	free
	.loc 1 40 0
	movl	$0, %eax
.L3:
	.loc 1 41 0
	leal	-8(%ebp), %esp
	popl	%ebx
	.cfi_restore 3
	popl	%edi
	.cfi_restore 7
	popl	%ebp
.LCFI2:
	.cfi_def_cfa 4, 4
	.cfi_restore 5
	ret
	.cfi_endproc
.LFE0:
	.size	main, .-main
.Letext0:
	.section	.note.GNU-stack,"",@progbits
